; ModuleID = '14/1284.c'
source_filename = "14/1284.c"
target datalayout = "e-m:e-p270:32:32-p271:32:32-p272:64:64-i64:64-f80:128-n8:16:32:64-S128"
target triple = "x86_64-pc-linux-gnu"

%struct.student = type { i32, i32 }

@.str = private unnamed_addr constant [3 x i8] c"%d\00", align 1
@max1 = common dso_local global %struct.student zeroinitializer, align 4
@max2 = common dso_local global %struct.student zeroinitializer, align 4
@max3 = common dso_local global %struct.student zeroinitializer, align 4
@.str.1 = private unnamed_addr constant [9 x i8] c"%d %d %d\00", align 1
@a = common dso_local global %struct.student zeroinitializer, align 4
@.str.2 = private unnamed_addr constant [19 x i8] c"%d %d\0A%d %d\0A%d %d\0A\00", align 1

; Function Attrs: noinline nounwind uwtable
define dso_local void @main() #0 {
  %1 = alloca i32, align 4
  %2 = alloca i32, align 4
  %3 = alloca i32, align 4
  %4 = alloca i32, align 4
  %5 = call i32 (i8*, ...) @__isoc99_scanf(i8* getelementptr inbounds ([3 x i8], [3 x i8]* @.str, i64 0, i64 0), i32* %2)
  store i32 -1, i32* getelementptr inbounds (%struct.student, %struct.student* @max1, i32 0, i32 1), align 4
  store i32 -1, i32* getelementptr inbounds (%struct.student, %struct.student* @max2, i32 0, i32 1), align 4
  store i32 -1, i32* getelementptr inbounds (%struct.student, %struct.student* @max3, i32 0, i32 1), align 4
  store i32 0, i32* %1, align 4
  br label %6

6:                                                ; preds = %32, %0
  %7 = load i32, i32* %1, align 4
  %8 = load i32, i32* %2, align 4
  %9 = icmp slt i32 %7, %8
  br i1 %9, label %10, label %35

10:                                               ; preds = %6
  %11 = call i32 (i8*, ...) @__isoc99_scanf(i8* getelementptr inbounds ([9 x i8], [9 x i8]* @.str.1, i64 0, i64 0), i32* getelementptr inbounds (%struct.student, %struct.student* @a, i32 0, i32 0), i32* %3, i32* %4)
  %12 = load i32, i32* %3, align 4
  %13 = load i32, i32* %4, align 4
  %14 = add nsw i32 %12, %13
  store i32 %14, i32* getelementptr inbounds (%struct.student, %struct.student* @a, i32 0, i32 1), align 4
  %15 = load i32, i32* getelementptr inbounds (%struct.student, %struct.student* @a, i32 0, i32 1), align 4
  %16 = load i32, i32* getelementptr inbounds (%struct.student, %struct.student* @max1, i32 0, i32 1), align 4
  %17 = icmp sgt i32 %15, %16
  br i1 %17, label %18, label %19

18:                                               ; preds = %10
  call void @llvm.memcpy.p0i8.p0i8.i64(i8* align 4 bitcast (%struct.student* @max3 to i8*), i8* align 4 bitcast (%struct.student* @max2 to i8*), i64 8, i1 false)
  call void @llvm.memcpy.p0i8.p0i8.i64(i8* align 4 bitcast (%struct.student* @max2 to i8*), i8* align 4 bitcast (%struct.student* @max1 to i8*), i64 8, i1 false)
  call void @llvm.memcpy.p0i8.p0i8.i64(i8* align 4 bitcast (%struct.student* @max1 to i8*), i8* align 4 bitcast (%struct.student* @a to i8*), i64 8, i1 false)
  br label %31

19:                                               ; preds = %10
  %20 = load i32, i32* getelementptr inbounds (%struct.student, %struct.student* @a, i32 0, i32 1), align 4
  %21 = load i32, i32* getelementptr inbounds (%struct.student, %struct.student* @max2, i32 0, i32 1), align 4
  %22 = icmp sgt i32 %20, %21
  br i1 %22, label %23, label %24

23:                                               ; preds = %19
  call void @llvm.memcpy.p0i8.p0i8.i64(i8* align 4 bitcast (%struct.student* @max3 to i8*), i8* align 4 bitcast (%struct.student* @max2 to i8*), i64 8, i1 false)
  call void @llvm.memcpy.p0i8.p0i8.i64(i8* align 4 bitcast (%struct.student* @max2 to i8*), i8* align 4 bitcast (%struct.student* @a to i8*), i64 8, i1 false)
  br label %30

24:                                               ; preds = %19
  %25 = load i32, i32* getelementptr inbounds (%struct.student, %struct.student* @a, i32 0, i32 1), align 4
  %26 = load i32, i32* getelementptr inbounds (%struct.student, %struct.student* @max3, i32 0, i32 1), align 4
  %27 = icmp sgt i32 %25, %26
  br i1 %27, label %28, label %29

28:                                               ; preds = %24
  call void @llvm.memcpy.p0i8.p0i8.i64(i8* align 4 bitcast (%struct.student* @max3 to i8*), i8* align 4 bitcast (%struct.student* @a to i8*), i64 8, i1 false)
  call void @llvm.memcpy.p0i8.p0i8.i64(i8* align 4 bitcast (%struct.student* @max3 to i8*), i8* align 4 bitcast (%struct.student* @a to i8*), i64 8, i1 false)
  br label %29

29:                                               ; preds = %28, %24
  br label %30

30:                                               ; preds = %29, %23
  br label %31

31:                                               ; preds = %30, %18
  br label %32

32:                                               ; preds = %31
  %33 = load i32, i32* %1, align 4
  %34 = add nsw i32 %33, 1
  store i32 %34, i32* %1, align 4
  br label %6

35:                                               ; preds = %6
  %36 = load i32, i32* getelementptr inbounds (%struct.student, %struct.student* @max1, i32 0, i32 0), align 4
  %37 = load i32, i32* getelementptr inbounds (%struct.student, %struct.student* @max1, i32 0, i32 1), align 4
  %38 = load i32, i32* getelementptr inbounds (%struct.student, %struct.student* @max2, i32 0, i32 0), align 4
  %39 = load i32, i32* getelementptr inbounds (%struct.student, %struct.student* @max2, i32 0, i32 1), align 4
  %40 = load i32, i32* getelementptr inbounds (%struct.student, %struct.student* @max3, i32 0, i32 0), align 4
  %41 = load i32, i32* getelementptr inbounds (%struct.student, %struct.student* @max3, i32 0, i32 1), align 4
  %42 = call i32 (i8*, ...) @printf(i8* getelementptr inbounds ([19 x i8], [19 x i8]* @.str.2, i64 0, i64 0), i32 %36, i32 %37, i32 %38, i32 %39, i32 %40, i32 %41)
  ret void
}

declare dso_local i32 @__isoc99_scanf(i8*, ...) #1

; Function Attrs: argmemonly nounwind willreturn
declare void @llvm.memcpy.p0i8.p0i8.i64(i8* noalias nocapture writeonly, i8* noalias nocapture readonly, i64, i1 immarg) #2

declare dso_local i32 @printf(i8*, ...) #1


!llvm.module.flags = !{!0}
!llvm.ident = !{!1}

!0 = !{i32 1, !"wchar_size", i32 4}
!1 = !{!"clang version 10.0.0-4ubuntu1 "}
